target datalayout = "e-m:e-p270:32:32-p271:32:32-p272:64:64-i64:64-i128:128-f80:128-n8:16:32:64-S128"
target triple = "x86_64-pc-linux-gnu"

%struct.CVodeMemRec = type { ptr, double, ptr, ptr, i32, i32, double, double, ptr, i32, i32, ptr, ptr, i32, i32, ptr, i32, i32, double, double, ptr, i32, i32, i32, i32, ptr, ptr, ptr, i32, i32, ptr, ptr, ptr, i32, double, i32, i32, double, ptr, ptr, ptr, i32, ptr, ptr, i32, i32, i32, double, ptr, ptr, ptr, [13 x ptr], ptr, ptr, ptr, ptr, ptr, ptr, ptr, ptr, ptr, [13 x ptr], ptr, ptr, ptr, ptr, [13 x ptr], ptr, ptr, ptr, ptr, ptr, i32, [13 x ptr], ptr, ptr, ptr, ptr, ptr, i32, i32, double, i32, i32, i32, i32, i32, double, double, double, double, double, double, double, double, [14 x double], [6 x double], [13 x double], double, double, double, double, double, double, double, double, i32, double, double, i32, double, double, ptr, i32, i64, i32, i32, i32, double, double, double, double, double, double, double, double, double, double, double, double, i64, i32, i64, i64, i64, i64, i64, i64, i64, i64, i64, ptr, i64, i64, ptr, i64, i64, ptr, i64, i64, i64, i64, i64, i64, i32, double, double, double, i64, i64, i64, i64, i64, i64, ptr, i32, ptr, i32, ptr, i32, ptr, i32, i32, i64, i32, ptr, i32, ptr, ptr, ptr, ptr, ptr, ptr, i32, i32, ptr, ptr, ptr, ptr, ptr, i64, double, i32, i32, i64, double, double, double, i32, i32, double, i32, i32, i32, i32, i32, i32, i32, i32, i32, i32, i32, i32, i32, i32, i32, i32, ptr, i64, i32, [6 x [4 x double]], i32, i64, ptr, i32, ptr, ptr, double, double, double, ptr, ptr, ptr, double, double, i32, i32, i64, ptr, i32, ptr, i32, i32, [13 x double], ptr, ptr, ptr, i32, ptr, i32 }

@.str = private unnamed_addr constant [123 x i8] c"generated/home/dtcxzyw/WorkSpace/Projects/compilers/llvm-opt-benchmark/bench/sundials/sundials/src/cvodes/cvodes_nls_sim.c\00", align 1
@.str.1 = private unnamed_addr constant [26 x i8] c"cvode_mem = NULL illegal.\00", align 1
@__func__.CVodeGetNonlinearSystemDataSens = private unnamed_addr constant [32 x i8] c"CVodeGetNonlinearSystemDataSens\00", align 1

; Function Attrs: nounwind uwtable
define i32 @CVodeGetNonlinearSystemDataSens(ptr noundef %0, ptr noundef %1, ptr noundef %2, ptr noundef %3, ptr noundef %4, ptr noundef %5, ptr noundef %6, ptr noundef %7) #0 {
  %9 = alloca i32, align 4
  %10 = alloca ptr, align 8
  %11 = alloca ptr, align 8
  %12 = alloca ptr, align 8
  %13 = alloca ptr, align 8
  %14 = alloca ptr, align 8
  %15 = alloca ptr, align 8
  %16 = alloca ptr, align 8
  %17 = alloca ptr, align 8
  %18 = alloca ptr, align 8
  store ptr %0, ptr %10, align 8
  store ptr %1, ptr %11, align 8
  store ptr %2, ptr %12, align 8
  store ptr %3, ptr %13, align 8
  store ptr %4, ptr %14, align 8
  store ptr %5, ptr %15, align 8
  store ptr %6, ptr %16, align 8
  store ptr %7, ptr %17, align 8
  %19 = load ptr, ptr %10, align 8
  %20 = icmp eq ptr %19, null
  br i1 %20, label %21, label %22

21:                                               ; preds = %8
  call void (ptr, i32, i32, ptr, ptr, ptr, ...) @cvProcessError(ptr noundef null, i32 noundef -21, i32 noundef 229, ptr noundef @__func__.CVodeGetNonlinearSystemDataSens, ptr noundef @.str, ptr noundef @.str.1)
  store i32 -21, ptr %9, align 4
  br label %54

22:                                               ; preds = %8
  %23 = load ptr, ptr %10, align 8
  store ptr %23, ptr %18, align 8
  %24 = load ptr, ptr %18, align 8
  %25 = getelementptr inbounds %struct.CVodeMemRec, ptr %24, i32 0, i32 93
  %26 = load double, ptr %25, align 8
  %27 = load ptr, ptr %11, align 8
  store double %26, ptr %27, align 8
  %28 = load ptr, ptr %18, align 8
  %29 = getelementptr inbounds %struct.CVodeMemRec, ptr %28, i32 0, i32 66
  %30 = getelementptr inbounds [13 x ptr], ptr %29, i64 0, i64 0
  %31 = load ptr, ptr %30, align 8
  %32 = load ptr, ptr %12, align 8
  store ptr %31, ptr %32, align 8
  %33 = load ptr, ptr %18, align 8
  %34 = getelementptr inbounds %struct.CVodeMemRec, ptr %33, i32 0, i32 68
  %35 = load ptr, ptr %34, align 8
  %36 = load ptr, ptr %13, align 8
  store ptr %35, ptr %36, align 8
  %37 = load ptr, ptr %18, align 8
  %38 = getelementptr inbounds %struct.CVodeMemRec, ptr %37, i32 0, i32 99
  %39 = load double, ptr %38, align 8
  %40 = load ptr, ptr %14, align 8
  store double %39, ptr %40, align 8
  %41 = load ptr, ptr %18, align 8
  %42 = getelementptr inbounds %struct.CVodeMemRec, ptr %41, i32 0, i32 98
  %43 = load double, ptr %42, align 8
  %44 = load ptr, ptr %15, align 8
  store double %43, ptr %44, align 8
  %45 = load ptr, ptr %18, align 8
  %46 = getelementptr inbounds %struct.CVodeMemRec, ptr %45, i32 0, i32 66
  %47 = getelementptr inbounds [13 x ptr], ptr %46, i64 0, i64 1
  %48 = load ptr, ptr %47, align 8
  %49 = load ptr, ptr %16, align 8
  store ptr %48, ptr %49, align 8
  %50 = load ptr, ptr %18, align 8
  %51 = getelementptr inbounds %struct.CVodeMemRec, ptr %50, i32 0, i32 3
  %52 = load ptr, ptr %51, align 8
  %53 = load ptr, ptr %17, align 8
  store ptr %52, ptr %53, align 8
  store i32 0, ptr %9, align 4
  br label %54

54:                                               ; preds = %22, %21
  %55 = load i32, ptr %9, align 4
  ret i32 %55
}