; Function Attrs: nounwind uwtable
define range(i32 -21, 1) i32 @CVodeGetNonlinearSystemDataSens(ptr noundef readonly %0, ptr noundef writeonly captures(none) %1, ptr noundef writeonly captures(none) %2, ptr noundef writeonly captures(none) %3, ptr noundef writeonly captures(none) %4, ptr noundef writeonly captures(none) %5, ptr noundef writeonly captures(none) %6, ptr noundef writeonly captures(none) %7) local_unnamed_addr #0 {
  %9 = icmp eq ptr %0, null
  br i1 %9, label %10, label %11

10:                                               ; preds = %8
  tail call void (ptr, i32, i32, ptr, ptr, ptr, ...) @cvProcessError(ptr noundef null, i32 noundef -21, i32 noundef 229, ptr noundef nonnull @__func__.CVodeGetNonlinearSystemDataSens, ptr noundef nonnull @.str, ptr noundef nonnull @.str.1) #2
  br label %26

11:                                               ; preds = %8
  %12 = getelementptr inbounds nuw i8, ptr %0, i64 1032
  %13 = load double, ptr %12, align 8
  store double %13, ptr %1, align 8
  %14 = getelementptr inbounds nuw i8, ptr %0, i64 648
  %15 = load ptr, ptr %14, align 8
  store ptr %15, ptr %2, align 8
  %16 = getelementptr inbounds nuw i8, ptr %0, i64 760
  %17 = load ptr, ptr %16, align 8
  store ptr %17, ptr %3, align 8
  %18 = getelementptr inbounds nuw i8, ptr %0, i64 1320
  %19 = load double, ptr %18, align 8
  store double %19, ptr %4, align 8
  %20 = getelementptr inbounds nuw i8, ptr %0, i64 1312
  %21 = load double, ptr %20, align 8
  store double %21, ptr %5, align 8
  %22 = getelementptr inbounds nuw i8, ptr %0, i64 656
  %23 = load ptr, ptr %22, align 8
  store ptr %23, ptr %6, align 8
  %24 = getelementptr inbounds nuw i8, ptr %0, i64 24
  %25 = load ptr, ptr %24, align 8
  store ptr %25, ptr %7, align 8
  br label %26

26:                                               ; preds = %11, %10
  %.0 = phi i32 [ -21, %10 ], [ 0, %11 ]
  ret i32 %.0
}